target datalayout = "e-m:e-p270:32:32-p271:32:32-p272:64:64-i64:64-i128:128-f80:128-n8:16:32:64-S128"
target triple = "x86_64-pc-linux-gnu"

%struct.expert_field = type { i32, i32 }

@hf_alcap_plc_max_br_fw = internal global i32 0, align 4
@hf_alcap_plc_max_br_bw = internal global i32 0, align 4
@hf_alcap_plc_avg_br_fw = internal global i32 0, align 4
@hf_alcap_plc_avg_br_bw = internal global i32 0, align 4
@hf_alcap_plc_max_sdu_fw = internal global i32 0, align 4
@hf_alcap_plc_max_sdu_bw = internal global i32 0, align 4
@hf_alcap_plc_avg_sdu_fw = internal global i32 0, align 4
@hf_alcap_plc_avg_sdu_bw = internal global i32 0, align 4
@ei_alcap_parameter_field_bad_length = internal global %struct.expert_field zeroinitializer, align 4

; Function Attrs: null_pointer_is_valid sspstrong uwtable
define internal ptr @dissect_fields_plc(ptr noundef %0, ptr noundef %1, ptr noundef %2, i32 noundef %3, i32 noundef %4, ptr noundef %5) #0 {
  %7 = alloca ptr, align 8
  %8 = alloca ptr, align 8
  %9 = alloca ptr, align 8
  %10 = alloca ptr, align 8
  %11 = alloca i32, align 4
  %12 = alloca i32, align 4
  %13 = alloca ptr, align 8
  store ptr %0, ptr %8, align 8
  store ptr %1, ptr %9, align 8
  store ptr %2, ptr %10, align 8
  store i32 %3, ptr %11, align 4
  store i32 %4, ptr %12, align 4
  store ptr %5, ptr %13, align 8
  %14 = load i32, ptr %12, align 4
  %15 = icmp ne i32 %14, 12
  br i1 %15, label %16, label %23

16:                                               ; preds = %6
  %17 = load ptr, ptr %10, align 8
  %18 = load ptr, ptr %8, align 8
  %19 = load ptr, ptr %9, align 8
  %20 = load i32, ptr %11, align 4
  %21 = load i32, ptr %12, align 4
  %22 = call ptr @proto_tree_add_expert(ptr noundef %17, ptr noundef %18, ptr noundef @ei_alcap_parameter_field_bad_length, ptr noundef %19, i32 noundef %20, i32 noundef %21)
  store ptr null, ptr %7, align 8
  br label %72

23:                                               ; preds = %6
  %24 = load ptr, ptr %10, align 8
  %25 = load i32, ptr @hf_alcap_plc_max_br_fw, align 4
  %26 = load ptr, ptr %9, align 8
  %27 = load i32, ptr %11, align 4
  %28 = add i32 %27, 0
  %29 = call ptr @proto_tree_add_item(ptr noundef %24, i32 noundef %25, ptr noundef %26, i32 noundef %28, i32 noundef 2, i32 noundef 0)
  %30 = load ptr, ptr %10, align 8
  %31 = load i32, ptr @hf_alcap_plc_max_br_bw, align 4
  %32 = load ptr, ptr %9, align 8
  %33 = load i32, ptr %11, align 4
  %34 = add i32 %33, 2
  %35 = call ptr @proto_tree_add_item(ptr noundef %30, i32 noundef %31, ptr noundef %32, i32 noundef %34, i32 noundef 2, i32 noundef 0)
  %36 = load ptr, ptr %10, align 8
  %37 = load i32, ptr @hf_alcap_plc_avg_br_fw, align 4
  %38 = load ptr, ptr %9, align 8
  %39 = load i32, ptr %11, align 4
  %40 = add i32 %39, 4
  %41 = call ptr @proto_tree_add_item(ptr noundef %36, i32 noundef %37, ptr noundef %38, i32 noundef %40, i32 noundef 2, i32 noundef 0)
  %42 = load ptr, ptr %10, align 8
  %43 = load i32, ptr @hf_alcap_plc_avg_br_bw, align 4
  %44 = load ptr, ptr %9, align 8
  %45 = load i32, ptr %11, align 4
  %46 = add i32 %45, 6
  %47 = call ptr @proto_tree_add_item(ptr noundef %42, i32 noundef %43, ptr noundef %44, i32 noundef %46, i32 noundef 2, i32 noundef 0)
  %48 = load ptr, ptr %10, align 8
  %49 = load i32, ptr @hf_alcap_plc_max_sdu_fw, align 4
  %50 = load ptr, ptr %9, align 8
  %51 = load i32, ptr %11, align 4
  %52 = add i32 %51, 8
  %53 = call ptr @proto_tree_add_item(ptr noundef %48, i32 noundef %49, ptr noundef %50, i32 noundef %52, i32 noundef 1, i32 noundef 0)
  %54 = load ptr, ptr %10, align 8
  %55 = load i32, ptr @hf_alcap_plc_max_sdu_bw, align 4
  %56 = load ptr, ptr %9, align 8
  %57 = load i32, ptr %11, align 4
  %58 = add i32 %57, 9
  %59 = call ptr @proto_tree_add_item(ptr noundef %54, i32 noundef %55, ptr noundef %56, i32 noundef %58, i32 noundef 1, i32 noundef 0)
  %60 = load ptr, ptr %10, align 8
  %61 = load i32, ptr @hf_alcap_plc_avg_sdu_fw, align 4
  %62 = load ptr, ptr %9, align 8
  %63 = load i32, ptr %11, align 4
  %64 = add i32 %63, 10
  %65 = call ptr @proto_tree_add_item(ptr noundef %60, i32 noundef %61, ptr noundef %62, i32 noundef %64, i32 noundef 1, i32 noundef 0)
  %66 = load ptr, ptr %10, align 8
  %67 = load i32, ptr @hf_alcap_plc_avg_sdu_bw, align 4
  %68 = load ptr, ptr %9, align 8
  %69 = load i32, ptr %11, align 4
  %70 = add i32 %69, 11
  %71 = call ptr @proto_tree_add_item(ptr noundef %66, i32 noundef %67, ptr noundef %68, i32 noundef %70, i32 noundef 1, i32 noundef 0)
  store ptr null, ptr %7, align 8
  br label %72

72:                                               ; preds = %23, %16
  %73 = load ptr, ptr %7, align 8
  ret ptr %73
}